target datalayout = "e-m:e-p270:32:32-p271:32:32-p272:64:64-i64:64-i128:128-f80:128-n8:16:32:64-S128"
target triple = "x86_64-pc-linux-gnu"

%struct.Font = type { i32, i32, i32, %struct.Texture, ptr, ptr }
%struct.Texture = type { i32, i32, i32, i32, i32 }
%struct.Image = type { ptr, i32, i32, i32, i32 }
%struct.GlyphInfo = type { i32, i32, i32, i32, %struct.Image }
%struct.Rectangle = type { float, float, float, float }

@defaultFont = internal global %struct.Font zeroinitializer, align 8
@isGpuReady = external global i8, align 1
@.str.1 = private unnamed_addr constant [5 x i8] c".ttf\00", align 1
@.str.2 = private unnamed_addr constant [5 x i8] c".otf\00", align 1
@.str.5 = private unnamed_addr constant [59 x i8] c"FONT: Data loaded successfully (%i pixel size | %i glyphs)\00", align 1
@TextToLower.buffer = internal global [1024 x i8] zeroinitializer, align 16

; Function Attrs: nounwind uwtable
define void @GetFontDefault(ptr dead_on_unwind noalias writable sret(%struct.Font) align 8 %0) #0 {
  call void @llvm.memcpy.p0.p0.i64(ptr align 8 %0, ptr align 8 @defaultFont, i64 48, i1 false)
  ret void
}

; Function Attrs: nounwind uwtable
define zeroext i1 @TextIsEqual(ptr noundef %0, ptr noundef %1) #0 {
  %3 = alloca ptr, align 8
  %4 = alloca ptr, align 8
  %5 = alloca i8, align 1
  store ptr %0, ptr %3, align 8
  store ptr %1, ptr %4, align 8
  call void @llvm.lifetime.start.p0(i64 1, ptr %5) #13
  store i8 0, ptr %5, align 1
  %6 = load ptr, ptr %3, align 8
  %7 = icmp ne ptr %6, null
  br i1 %7, label %8, label %18

8:                                                ; preds = %2
  %9 = load ptr, ptr %4, align 8
  %10 = icmp ne ptr %9, null
  br i1 %10, label %11, label %18

11:                                               ; preds = %8
  %12 = load ptr, ptr %3, align 8
  %13 = load ptr, ptr %4, align 8
  %14 = call i32 @strcmp(ptr noundef %12, ptr noundef %13) #15
  %15 = icmp eq i32 %14, 0
  br i1 %15, label %16, label %17

16:                                               ; preds = %11
  store i8 1, ptr %5, align 1
  br label %17

17:                                               ; preds = %16, %11
  br label %18

18:                                               ; preds = %17, %8, %2
  %19 = load i8, ptr %5, align 1, !range !3, !noundef !4
  %20 = trunc i8 %19 to i1
  call void @llvm.lifetime.end.p0(i64 1, ptr %5) #13
  ret i1 %20
}

; Function Attrs: nounwind uwtable
define ptr @TextToLower(ptr noundef %0) #0 {
  %2 = alloca ptr, align 8
  %3 = alloca i32, align 4
  store ptr %0, ptr %2, align 8
  call void @llvm.memset.p0.i64(ptr align 16 @TextToLower.buffer, i8 0, i64 1024, i1 false)
  %4 = load ptr, ptr %2, align 8
  %5 = icmp ne ptr %4, null
  br i1 %5, label %6, label %63

6:                                                ; preds = %1
  call void @llvm.lifetime.start.p0(i64 4, ptr %3) #13
  store i32 0, ptr %3, align 4
  br label %7

7:                                                ; preds = %59, %6
  %8 = load i32, ptr %3, align 4
  %9 = icmp slt i32 %8, 1023
  br i1 %9, label %10, label %18

10:                                               ; preds = %7
  %11 = load ptr, ptr %2, align 8
  %12 = load i32, ptr %3, align 4
  %13 = sext i32 %12 to i64
  %14 = getelementptr inbounds i8, ptr %11, i64 %13
  %15 = load i8, ptr %14, align 1
  %16 = sext i8 %15 to i32
  %17 = icmp ne i32 %16, 0
  br label %18

18:                                               ; preds = %10, %7
  %19 = phi i1 [ false, %7 ], [ %17, %10 ]
  br i1 %19, label %21, label %20

20:                                               ; preds = %18
  call void @llvm.lifetime.end.p0(i64 4, ptr %3) #13
  br label %62

21:                                               ; preds = %18
  %22 = load ptr, ptr %2, align 8
  %23 = load i32, ptr %3, align 4
  %24 = sext i32 %23 to i64
  %25 = getelementptr inbounds i8, ptr %22, i64 %24
  %26 = load i8, ptr %25, align 1
  %27 = sext i8 %26 to i32
  %28 = icmp sge i32 %27, 65
  br i1 %28, label %29, label %49

29:                                               ; preds = %21
  %30 = load ptr, ptr %2, align 8
  %31 = load i32, ptr %3, align 4
  %32 = sext i32 %31 to i64
  %33 = getelementptr inbounds i8, ptr %30, i64 %32
  %34 = load i8, ptr %33, align 1
  %35 = sext i8 %34 to i32
  %36 = icmp sle i32 %35, 90
  br i1 %36, label %37, label %49

37:                                               ; preds = %29
  %38 = load ptr, ptr %2, align 8
  %39 = load i32, ptr %3, align 4
  %40 = sext i32 %39 to i64
  %41 = getelementptr inbounds i8, ptr %38, i64 %40
  %42 = load i8, ptr %41, align 1
  %43 = sext i8 %42 to i32
  %44 = add nsw i32 %43, 32
  %45 = trunc i32 %44 to i8
  %46 = load i32, ptr %3, align 4
  %47 = sext i32 %46 to i64
  %48 = getelementptr inbounds [1024 x i8], ptr @TextToLower.buffer, i64 0, i64 %47
  store i8 %45, ptr %48, align 1
  br label %58

49:                                               ; preds = %29, %21
  %50 = load ptr, ptr %2, align 8
  %51 = load i32, ptr %3, align 4
  %52 = sext i32 %51 to i64
  %53 = getelementptr inbounds i8, ptr %50, i64 %52
  %54 = load i8, ptr %53, align 1
  %55 = load i32, ptr %3, align 4
  %56 = sext i32 %55 to i64
  %57 = getelementptr inbounds [1024 x i8], ptr @TextToLower.buffer, i64 0, i64 %56
  store i8 %54, ptr %57, align 1
  br label %58

58:                                               ; preds = %49, %37
  br label %59

59:                                               ; preds = %58
  %60 = load i32, ptr %3, align 4
  %61 = add nsw i32 %60, 1
  store i32 %61, ptr %3, align 4
  br label %7

62:                                               ; preds = %20
  br label %63

63:                                               ; preds = %62, %1
  ret ptr @TextToLower.buffer
}

; Function Attrs: nounwind uwtable
define void @LoadFontFromMemory(ptr dead_on_unwind noalias writable sret(%struct.Font) align 8 %0, ptr noundef %1, ptr noundef %2, i32 noundef %3, i32 noundef %4, ptr noundef %5, i32 noundef %6) #3 {
  %8 = alloca ptr, align 8
  %9 = alloca ptr, align 8
  %10 = alloca i32, align 4
  %11 = alloca i32, align 4
  %12 = alloca ptr, align 8
  %13 = alloca i32, align 4
  %14 = alloca [16 x i8], align 16
  %15 = alloca %struct.Image, align 8
  %16 = alloca %struct.Texture, align 4
  %17 = alloca i32, align 4
  %18 = alloca %struct.Image, align 8
  %19 = alloca %struct.Font, align 8
  store ptr %1, ptr %8, align 8
  store ptr %2, ptr %9, align 8
  store i32 %3, ptr %10, align 4
  store i32 %4, ptr %11, align 4
  store ptr %5, ptr %12, align 8
  store i32 %6, ptr %13, align 4
  call void @llvm.memset.p0.i64(ptr align 8 %0, i8 0, i64 48, i1 false)
  call void @llvm.lifetime.start.p0(i64 16, ptr %14) #13
  call void @llvm.memset.p0.i64(ptr align 16 %14, i8 0, i64 16, i1 false)
  %20 = getelementptr inbounds [16 x i8], ptr %14, i64 0, i64 0
  %21 = load ptr, ptr %8, align 8
  %22 = call ptr @TextToLower(ptr noundef %21)
  %23 = call ptr @strncpy(ptr noundef %20, ptr noundef %22, i64 noundef 15) #13
  %24 = load i32, ptr %11, align 4
  %25 = getelementptr inbounds nuw %struct.Font, ptr %0, i32 0, i32 0
  store i32 %24, ptr %25, align 8
  %26 = load i32, ptr %13, align 4
  %27 = icmp sgt i32 %26, 0
  br i1 %27, label %28, label %30

28:                                               ; preds = %7
  %29 = load i32, ptr %13, align 4
  br label %31

30:                                               ; preds = %7
  br label %31

31:                                               ; preds = %30, %28
  %32 = phi i32 [ %29, %28 ], [ 95, %30 ]
  %33 = getelementptr inbounds nuw %struct.Font, ptr %0, i32 0, i32 1
  store i32 %32, ptr %33, align 4
  %34 = getelementptr inbounds nuw %struct.Font, ptr %0, i32 0, i32 2
  store i32 0, ptr %34, align 8
  %35 = getelementptr inbounds [16 x i8], ptr %14, i64 0, i64 0
  %36 = call zeroext i1 @TextIsEqual(ptr noundef %35, ptr noundef @.str.1)
  br i1 %36, label %40, label %37

37:                                               ; preds = %31
  %38 = getelementptr inbounds [16 x i8], ptr %14, i64 0, i64 0
  %39 = call zeroext i1 @TextIsEqual(ptr noundef %38, ptr noundef @.str.2)
  br i1 %39, label %40, label %50

40:                                               ; preds = %37, %31
  %41 = load ptr, ptr %9, align 8
  %42 = load i32, ptr %10, align 4
  %43 = getelementptr inbounds nuw %struct.Font, ptr %0, i32 0, i32 0
  %44 = load i32, ptr %43, align 8
  %45 = load ptr, ptr %12, align 8
  %46 = getelementptr inbounds nuw %struct.Font, ptr %0, i32 0, i32 1
  %47 = load i32, ptr %46, align 4
  %48 = call ptr @LoadFontData(ptr noundef %41, i32 noundef %42, i32 noundef %44, ptr noundef %45, i32 noundef %47, i32 noundef 0)
  %49 = getelementptr inbounds nuw %struct.Font, ptr %0, i32 0, i32 5
  store ptr %48, ptr %49, align 8
  br label %52

50:                                               ; preds = %37
  %51 = getelementptr inbounds nuw %struct.Font, ptr %0, i32 0, i32 5
  store ptr null, ptr %51, align 8
  br label %52

52:                                               ; preds = %50, %40
  %53 = getelementptr inbounds nuw %struct.Font, ptr %0, i32 0, i32 5
  %54 = load ptr, ptr %53, align 8
  %55 = icmp ne ptr %54, null
  br i1 %55, label %56, label %108

56:                                               ; preds = %52
  %57 = getelementptr inbounds nuw %struct.Font, ptr %0, i32 0, i32 2
  store i32 4, ptr %57, align 8
  call void @llvm.lifetime.start.p0(i64 24, ptr %15) #13
  %58 = getelementptr inbounds nuw %struct.Font, ptr %0, i32 0, i32 5
  %59 = load ptr, ptr %58, align 8
  %60 = getelementptr inbounds nuw %struct.Font, ptr %0, i32 0, i32 4
  %61 = getelementptr inbounds nuw %struct.Font, ptr %0, i32 0, i32 1
  %62 = load i32, ptr %61, align 4
  %63 = getelementptr inbounds nuw %struct.Font, ptr %0, i32 0, i32 0
  %64 = load i32, ptr %63, align 8
  %65 = getelementptr inbounds nuw %struct.Font, ptr %0, i32 0, i32 2
  %66 = load i32, ptr %65, align 8
  call void @GenImageFontAtlas(ptr dead_on_unwind writable sret(%struct.Image) align 8 %15, ptr noundef %59, ptr noundef %60, i32 noundef %62, i32 noundef %64, i32 noundef %66, i32 noundef 0)
  %67 = load i8, ptr @isGpuReady, align 1, !range !3, !noundef !4
  %68 = trunc i8 %67 to i1
  br i1 %68, label %69, label %71

69:                                               ; preds = %56
  %70 = getelementptr inbounds nuw %struct.Font, ptr %0, i32 0, i32 3
  call void @llvm.lifetime.start.p0(i64 20, ptr %16) #13
  call void @LoadTextureFromImage(ptr dead_on_unwind writable sret(%struct.Texture) align 4 %16, ptr noundef byval(%struct.Image) align 8 %15)
  call void @llvm.memcpy.p0.p0.i64(ptr align 4 %70, ptr align 4 %16, i64 20, i1 false)
  call void @llvm.lifetime.end.p0(i64 20, ptr %16) #13
  br label %71

71:                                               ; preds = %69, %56
  call void @llvm.lifetime.start.p0(i64 4, ptr %17) #13
  store i32 0, ptr %17, align 4
  br label %72

72:                                               ; preds = %100, %71
  %73 = load i32, ptr %17, align 4
  %74 = getelementptr inbounds nuw %struct.Font, ptr %0, i32 0, i32 1
  %75 = load i32, ptr %74, align 4
  %76 = icmp slt i32 %73, %75
  br i1 %76, label %78, label %77

77:                                               ; preds = %72
  call void @llvm.lifetime.end.p0(i64 4, ptr %17) #13
  br label %103

78:                                               ; preds = %72
  %79 = getelementptr inbounds nuw %struct.Font, ptr %0, i32 0, i32 5
  %80 = load ptr, ptr %79, align 8
  %81 = load i32, ptr %17, align 4
  %82 = sext i32 %81 to i64
  %83 = getelementptr inbounds %struct.GlyphInfo, ptr %80, i64 %82
  %84 = getelementptr inbounds nuw %struct.GlyphInfo, ptr %83, i32 0, i32 4
  call void @UnloadImage(ptr noundef byval(%struct.Image) align 8 %84)
  %85 = getelementptr inbounds nuw %struct.Font, ptr %0, i32 0, i32 5
  %86 = load ptr, ptr %85, align 8
  %87 = load i32, ptr %17, align 4
  %88 = sext i32 %87 to i64
  %89 = getelementptr inbounds %struct.GlyphInfo, ptr %86, i64 %88
  %90 = getelementptr inbounds nuw %struct.GlyphInfo, ptr %89, i32 0, i32 4
  call void @llvm.lifetime.start.p0(i64 24, ptr %18) #13
  %91 = getelementptr inbounds nuw %struct.Font, ptr %0, i32 0, i32 4
  %92 = load ptr, ptr %91, align 8
  %93 = load i32, ptr %17, align 4
  %94 = sext i32 %93 to i64
  %95 = getelementptr inbounds %struct.Rectangle, ptr %92, i64 %94
  %96 = getelementptr inbounds nuw { <2 x float>, <2 x float> }, ptr %95, i32 0, i32 0
  %97 = load <2 x float>, ptr %96, align 4
  %98 = getelementptr inbounds nuw { <2 x float>, <2 x float> }, ptr %95, i32 0, i32 1
  %99 = load <2 x float>, ptr %98, align 4
  call void @ImageFromImage(ptr dead_on_unwind writable sret(%struct.Image) align 8 %18, ptr noundef byval(%struct.Image) align 8 %15, <2 x float> %97, <2 x float> %99)
  call void @llvm.memcpy.p0.p0.i64(ptr align 8 %90, ptr align 8 %18, i64 24, i1 false)
  call void @llvm.lifetime.end.p0(i64 24, ptr %18) #13
  br label %100

100:                                              ; preds = %78
  %101 = load i32, ptr %17, align 4
  %102 = add nsw i32 %101, 1
  store i32 %102, ptr %17, align 4
  br label %72

103:                                              ; preds = %77
  call void @UnloadImage(ptr noundef byval(%struct.Image) align 8 %15)
  %104 = getelementptr inbounds nuw %struct.Font, ptr %0, i32 0, i32 0
  %105 = load i32, ptr %104, align 8
  %106 = getelementptr inbounds nuw %struct.Font, ptr %0, i32 0, i32 1
  %107 = load i32, ptr %106, align 4
  call void (i32, ptr, ...) @TraceLog(i32 noundef 3, ptr noundef @.str.5, i32 noundef %105, i32 noundef %107)
  call void @llvm.lifetime.end.p0(i64 24, ptr %15) #13
  br label %109

108:                                              ; preds = %52
  call void @llvm.lifetime.start.p0(i64 48, ptr %19) #13
  call void @GetFontDefault(ptr dead_on_unwind writable sret(%struct.Font) align 8 %19)
  call void @llvm.memcpy.p0.p0.i64(ptr align 8 %0, ptr align 8 %19, i64 48, i1 false)
  call void @llvm.lifetime.end.p0(i64 48, ptr %19) #13
  br label %109

109:                                              ; preds = %108, %103
  call void @llvm.lifetime.end.p0(i64 16, ptr %14) #13
  ret void
}