; Function Attrs: nounwind uwtable
define void @LoadFontFromMemory(ptr dead_on_unwind noalias writable sret(%struct.Font) align 8 captures(none) initializes((8, 40)) %0, ptr noundef readonly captures(address_is_null) %1, ptr noundef %2, i32 noundef %3, i32 noundef %4, ptr noundef captures(address_is_null) %5, i32 noundef %6) local_unnamed_addr #6 {
  %8 = alloca [16 x i8], align 16
  %9 = alloca %struct.Image, align 8
  %10 = alloca %struct.Image, align 8
  %11 = getelementptr inbounds nuw i8, ptr %0, i64 8
  tail call void @llvm.memset.p0.i64(ptr noundef nonnull align 8 dereferenceable(48) %11, i8 0, i64 32, i1 false)
  call void @llvm.lifetime.start.p0(i64 16, ptr nonnull %8) #41
  call void @llvm.memset.p0.i64(ptr noundef nonnull align 16 dereferenceable(16) %8, i8 0, i64 16, i1 false)
  tail call void @llvm.memset.p0.i64(ptr noundef nonnull align 16 dereferenceable(1024) @TextToLower.buffer, i8 0, i64 1024, i1 false)
  %.not.i = icmp eq ptr %1, null
  br i1 %.not.i, label %TextToLower.exit, label %.preheader.i

.preheader.i:                                     ; preds = %7, %14
  %indvars.iv.i = phi i64 [ %indvars.iv.next.i, %14 ], [ 0, %7 ]
  %12 = getelementptr inbounds nuw i8, ptr %1, i64 %indvars.iv.i
  %13 = load i8, ptr %12, align 1
  %.not16.i = icmp eq i8 %13, 0
  br i1 %.not16.i, label %TextToLower.exit, label %14

14:                                               ; preds = %.preheader.i
  %15 = add i8 %13, -65
  %or.cond.i = icmp ult i8 %15, 26
  %16 = or disjoint i8 %13, 32
  %spec.select.i = select i1 %or.cond.i, i8 %16, i8 %13
  %17 = getelementptr inbounds nuw [1024 x i8], ptr @TextToLower.buffer, i64 0, i64 %indvars.iv.i
  store i8 %spec.select.i, ptr %17, align 1
  %indvars.iv.next.i = add nuw nsw i64 %indvars.iv.i, 1
  %exitcond.not.i = icmp eq i64 %indvars.iv.next.i, 1023
  br i1 %exitcond.not.i, label %TextToLower.exit, label %.preheader.i

TextToLower.exit:                                 ; preds = %.preheader.i, %14, %7
  %18 = call ptr @strncpy(ptr noundef nonnull dereferenceable(1) %8, ptr noundef nonnull dereferenceable(1) @TextToLower.buffer, i64 noundef 15) #41
  store i32 %4, ptr %0, align 8
  %19 = icmp sgt i32 %6, 0
  %20 = select i1 %19, i32 %6, i32 95
  %21 = getelementptr inbounds nuw i8, ptr %0, i64 4
  store i32 %20, ptr %21, align 4
  %22 = getelementptr inbounds nuw i8, ptr %0, i64 8
  %bcmp = call i32 @bcmp(ptr noundef nonnull dereferenceable(5) %8, ptr noundef nonnull dereferenceable(5) @.str.1, i64 5)
  %23 = icmp eq i32 %bcmp, 0
  br i1 %23, label %26, label %24

24:                                               ; preds = %TextToLower.exit
  %bcmp13 = call i32 @bcmp(ptr noundef nonnull dereferenceable(5) %8, ptr noundef nonnull dereferenceable(5) @.str.2, i64 5)
  %25 = icmp eq i32 %bcmp13, 0
  br i1 %25, label %26, label %.thread

26:                                               ; preds = %TextToLower.exit, %24
  %27 = call ptr @LoadFontData(ptr noundef %2, i32 poison, i32 noundef %4, ptr noundef %5, i32 noundef %20, i32 noundef 0)
  %28 = getelementptr inbounds nuw i8, ptr %0, i64 40
  store ptr %27, ptr %28, align 8
  %29 = getelementptr inbounds nuw i8, ptr %0, i64 40
  %.not = icmp eq ptr %27, null
  br i1 %.not, label %.thread, label %30

30:                                               ; preds = %26
  store i32 4, ptr %22, align 8
  call void @llvm.lifetime.start.p0(i64 24, ptr nonnull %9) #41
  %31 = getelementptr inbounds nuw i8, ptr %0, i64 32
  call void @GenImageFontAtlas(ptr dead_on_unwind nonnull writable sret(%struct.Image) align 8 %9, ptr noundef nonnull %27, ptr noundef nonnull %31, i32 noundef %20, i32 noundef %4, i32 noundef 4, i32 noundef 0)
  %32 = load i8, ptr @isGpuReady, align 1, !range !3, !noundef !4
  %33 = trunc nuw i8 %32 to i1
  br i1 %33, label %34, label %36

34:                                               ; preds = %30
  %35 = getelementptr inbounds nuw i8, ptr %0, i64 12
  call void @LoadTextureFromImage(ptr dead_on_unwind nonnull writable sret(%struct.Texture) align 4 %35, ptr noundef nonnull byval(%struct.Image) align 8 %9) #41
  br label %36

36:                                               ; preds = %34, %30
  %37 = load i32, ptr %21, align 4
  %38 = icmp sgt i32 %37, 0
  br i1 %38, label %.lr.ph, label %._crit_edge

.lr.ph:                                           ; preds = %36
  %39 = load ptr, ptr %29, align 8
  %40 = load ptr, ptr %31, align 8
  %wide.trip.count = zext nneg i32 %37 to i64
  br label %42

._crit_edge:                                      ; preds = %42, %36
  call void @UnloadImage(ptr noundef nonnull byval(%struct.Image) align 8 %9) #41
  %41 = load i32, ptr %0, align 8
  call void (i32, ptr, ...) @TraceLog(i32 noundef 3, ptr noundef nonnull @.str.5, i32 noundef %41, i32 noundef %37) #41
  call void @llvm.lifetime.end.p0(i64 24, ptr nonnull %9) #41
  br label %48

42:                                               ; preds = %.lr.ph, %42
  %indvars.iv = phi i64 [ 0, %.lr.ph ], [ %indvars.iv.next, %42 ]
  %43 = getelementptr inbounds nuw %struct.GlyphInfo, ptr %39, i64 %indvars.iv, i32 4
  call void @UnloadImage(ptr noundef nonnull byval(%struct.Image) align 8 %43) #41
  call void @llvm.lifetime.start.p0(i64 24, ptr nonnull %10) #41
  %44 = getelementptr inbounds nuw %struct.Rectangle, ptr %40, i64 %indvars.iv
  %45 = load <2 x float>, ptr %44, align 4
  %46 = getelementptr inbounds nuw i8, ptr %44, i64 8
  %47 = load <2 x float>, ptr %46, align 4
  call void @ImageFromImage(ptr dead_on_unwind nonnull writable sret(%struct.Image) align 8 %10, ptr noundef nonnull byval(%struct.Image) align 8 %9, <2 x float> %45, <2 x float> %47) #41
  call void @llvm.memcpy.p0.p0.i64(ptr noundef nonnull align 8 dereferenceable(24) %43, ptr noundef nonnull align 8 dereferenceable(24) %10, i64 24, i1 false)
  call void @llvm.lifetime.end.p0(i64 24, ptr nonnull %10) #41
  %indvars.iv.next = add nuw nsw i64 %indvars.iv, 1
  %exitcond.not = icmp eq i64 %indvars.iv.next, %wide.trip.count
  br i1 %exitcond.not, label %._crit_edge, label %42

.thread:                                          ; preds = %24, %26
  call void @llvm.memcpy.p0.p0.i64(ptr noundef nonnull align 8 dereferenceable(48) %0, ptr noundef nonnull align 8 dereferenceable(48) @defaultFont, i64 48, i1 false)
  br label %48

48:                                               ; preds = %.thread, %._crit_edge
  call void @llvm.lifetime.end.p0(i64 16, ptr nonnull %8) #41
  ret void
}